
menu.o:     file format elf32-littlearm


Disassembly of section .text.menu_update_hilight:

00000000 <menu_update_hilight>:
   0:	b480      	push	{r7}
   2:	af00      	add	r7, sp, #0
   4:	46bd      	mov	sp, r7
   6:	bc80      	pop	{r7}
   8:	4770      	bx	lr
   a:	bf00      	nop

Disassembly of section .text.menu_run_callback:

00000000 <menu_run_callback>:
   0:	b580      	push	{r7, lr}
   2:	b084      	sub	sp, #16
   4:	af00      	add	r7, sp, #0
   6:	4603      	mov	r3, r0
   8:	71fb      	strb	r3, [r7, #7]
   a:	f240 0300 	movw	r3, #0	; 0x0
   e:	f2c0 0300 	movt	r3, #0	; 0x0
  12:	781b      	ldrb	r3, [r3, #0]
  14:	2b00      	cmp	r3, #0
  16:	d029      	beq.n	6c <menu_run_callback+0x6c>
  18:	f240 0300 	movw	r3, #0	; 0x0
  1c:	f2c0 0300 	movt	r3, #0	; 0x0
  20:	781b      	ldrb	r3, [r3, #0]
  22:	f103 32ff 	add.w	r2, r3, #4294967295	; 0xffffffff
  26:	f240 0300 	movw	r3, #0	; 0x0
  2a:	f2c0 0300 	movt	r3, #0	; 0x0
  2e:	f853 1022 	ldr.w	r1, [r3, r2, lsl #2]
  32:	f240 0300 	movw	r3, #0	; 0x0
  36:	f2c0 0300 	movt	r3, #0	; 0x0
  3a:	781b      	ldrb	r3, [r3, #0]
  3c:	f103 32ff 	add.w	r2, r3, #4294967295	; 0xffffffff
  40:	f240 0300 	movw	r3, #0	; 0x0
  44:	f2c0 0300 	movt	r3, #0	; 0x0
  48:	5c9b      	ldrb	r3, [r3, r2]
  4a:	461a      	mov	r2, r3
  4c:	4613      	mov	r3, r2
  4e:	ea4f 0383 	mov.w	r3, r3, lsl #2
  52:	4413      	add	r3, r2
  54:	ea4f 0383 	mov.w	r3, r3, lsl #2
  58:	440b      	add	r3, r1
  5a:	689b      	ldr	r3, [r3, #8]
  5c:	60fb      	str	r3, [r7, #12]
  5e:	68fb      	ldr	r3, [r7, #12]
  60:	2b00      	cmp	r3, #0
  62:	d003      	beq.n	6c <menu_run_callback+0x6c>
  64:	79fb      	ldrb	r3, [r7, #7]
  66:	68fa      	ldr	r2, [r7, #12]
  68:	4618      	mov	r0, r3
  6a:	4790      	blx	r2
  6c:	f107 0710 	add.w	r7, r7, #16	; 0x10
  70:	46bd      	mov	sp, r7
  72:	bd80      	pop	{r7, pc}

Disassembly of section .text.menu_get_selected:

00000000 <menu_get_selected>:
   0:	b480      	push	{r7}
   2:	b087      	sub	sp, #28
   4:	af00      	add	r7, sp, #0
   6:	f04f 0300 	mov.w	r3, #0	; 0x0
   a:	60bb      	str	r3, [r7, #8]
   c:	e067      	b.n	de <menu_get_selected+0xde>
   e:	68ba      	ldr	r2, [r7, #8]
  10:	f240 0300 	movw	r3, #0	; 0x0
  14:	f2c0 0300 	movt	r3, #0	; 0x0
  18:	681b      	ldr	r3, [r3, #0]
  1a:	fb03 f302 	mul.w	r3, r3, r2
  1e:	f103 0312 	add.w	r3, r3, #18	; 0x12
  22:	60fb      	str	r3, [r7, #12]
  24:	f240 0300 	movw	r3, #0	; 0x0
  28:	f2c0 0300 	movt	r3, #0	; 0x0
  2c:	681a      	ldr	r2, [r3, #0]
  2e:	68fb      	ldr	r3, [r7, #12]
  30:	429a      	cmp	r2, r3
  32:	db50      	blt.n	d6 <menu_get_selected+0xd6>
  34:	f240 0300 	movw	r3, #0	; 0x0
  38:	f2c0 0300 	movt	r3, #0	; 0x0
  3c:	681b      	ldr	r3, [r3, #0]
  3e:	4619      	mov	r1, r3
  40:	68fa      	ldr	r2, [r7, #12]
  42:	f240 0300 	movw	r3, #0	; 0x0
  46:	f2c0 0300 	movt	r3, #0	; 0x0
  4a:	681b      	ldr	r3, [r3, #0]
  4c:	4413      	add	r3, r2
  4e:	4299      	cmp	r1, r3
  50:	d841      	bhi.n	d6 <menu_get_selected+0xd6>
  52:	f240 0300 	movw	r3, #0	; 0x0
  56:	f2c0 0300 	movt	r3, #0	; 0x0
  5a:	781a      	ldrb	r2, [r3, #0]
  5c:	f240 0300 	movw	r3, #0	; 0x0
  60:	f2c0 0300 	movt	r3, #0	; 0x0
  64:	781b      	ldrb	r3, [r3, #0]
  66:	429a      	cmp	r2, r3
  68:	d032      	beq.n	d0 <menu_get_selected+0xd0>
  6a:	f04f 0300 	mov.w	r3, #0	; 0x0
  6e:	613b      	str	r3, [r7, #16]
  70:	e02b      	b.n	ca <menu_get_selected+0xca>
  72:	693a      	ldr	r2, [r7, #16]
  74:	4613      	mov	r3, r2
  76:	ea4f 0383 	mov.w	r3, r3, lsl #2
  7a:	4413      	add	r3, r2
  7c:	ea4f 1343 	mov.w	r3, r3, lsl #5
  80:	4413      	add	r3, r2
  82:	617b      	str	r3, [r7, #20]
  84:	f240 0300 	movw	r3, #0	; 0x0
  88:	f2c0 0300 	movt	r3, #0	; 0x0
  8c:	681a      	ldr	r2, [r3, #0]
  8e:	697b      	ldr	r3, [r7, #20]
  90:	429a      	cmp	r2, r3
  92:	db16      	blt.n	c2 <menu_get_selected+0xc2>
  94:	697b      	ldr	r3, [r7, #20]
  96:	f103 02a0 	add.w	r2, r3, #160	; 0xa0
  9a:	f240 0300 	movw	r3, #0	; 0x0
  9e:	f2c0 0300 	movt	r3, #0	; 0x0
  a2:	681b      	ldr	r3, [r3, #0]
  a4:	429a      	cmp	r2, r3
  a6:	dd0c      	ble.n	c2 <menu_get_selected+0xc2>
  a8:	f240 0300 	movw	r3, #0	; 0x0
  ac:	f2c0 0300 	movt	r3, #0	; 0x0
  b0:	781b      	ldrb	r3, [r3, #0]
  b2:	461a      	mov	r2, r3
  b4:	693b      	ldr	r3, [r7, #16]
  b6:	fb03 f202 	mul.w	r2, r3, r2
  ba:	68bb      	ldr	r3, [r7, #8]
  bc:	4413      	add	r3, r2
  be:	607b      	str	r3, [r7, #4]
  c0:	e019      	b.n	f6 <menu_get_selected+0xf6>
  c2:	693b      	ldr	r3, [r7, #16]
  c4:	f103 0301 	add.w	r3, r3, #1	; 0x1
  c8:	613b      	str	r3, [r7, #16]
  ca:	693b      	ldr	r3, [r7, #16]
  cc:	2b01      	cmp	r3, #1
  ce:	ddd0      	ble.n	72 <menu_get_selected+0x72>
  d0:	68bb      	ldr	r3, [r7, #8]
  d2:	607b      	str	r3, [r7, #4]
  d4:	e00f      	b.n	f6 <menu_get_selected+0xf6>
  d6:	68bb      	ldr	r3, [r7, #8]
  d8:	f103 0301 	add.w	r3, r3, #1	; 0x1
  dc:	60bb      	str	r3, [r7, #8]
  de:	f240 0300 	movw	r3, #0	; 0x0
  e2:	f2c0 0300 	movt	r3, #0	; 0x0
  e6:	781b      	ldrb	r3, [r3, #0]
  e8:	461a      	mov	r2, r3
  ea:	68bb      	ldr	r3, [r7, #8]
  ec:	429a      	cmp	r2, r3
  ee:	dc8e      	bgt.n	e <menu_get_selected+0xe>
  f0:	f04f 33ff 	mov.w	r3, #4294967295	; 0xffffffff
  f4:	607b      	str	r3, [r7, #4]
  f6:	687b      	ldr	r3, [r7, #4]
  f8:	4618      	mov	r0, r3
  fa:	f107 071c 	add.w	r7, r7, #28	; 0x1c
  fe:	46bd      	mov	sp, r7
 100:	bc80      	pop	{r7}
 102:	4770      	bx	lr

Disassembly of section .text.menu_paint_cell:

00000000 <menu_paint_cell>:
   0:	b590      	push	{r4, r7, lr}
   2:	b08f      	sub	sp, #60
   4:	af02      	add	r7, sp, #8
   6:	60f8      	str	r0, [r7, #12]
   8:	f240 0300 	movw	r3, #0	; 0x0
   c:	f2c0 0300 	movt	r3, #0	; 0x0
  10:	781b      	ldrb	r3, [r3, #0]
  12:	461a      	mov	r2, r3
  14:	68f9      	ldr	r1, [r7, #12]
  16:	fb91 f3f2 	sdiv	r3, r1, r2
  1a:	fb02 f303 	mul.w	r3, r2, r3
  1e:	ebc3 0301 	rsb	r3, r3, r1
  22:	617b      	str	r3, [r7, #20]
  24:	f240 0300 	movw	r3, #0	; 0x0
  28:	f2c0 0300 	movt	r3, #0	; 0x0
  2c:	781b      	ldrb	r3, [r3, #0]
  2e:	461a      	mov	r2, r3
  30:	68fb      	ldr	r3, [r7, #12]
  32:	fb93 f3f2 	sdiv	r3, r3, r2
  36:	61bb      	str	r3, [r7, #24]
  38:	697a      	ldr	r2, [r7, #20]
  3a:	f240 0300 	movw	r3, #0	; 0x0
  3e:	f2c0 0300 	movt	r3, #0	; 0x0
  42:	681b      	ldr	r3, [r3, #0]
  44:	fb03 f302 	mul.w	r3, r3, r2
  48:	f103 0312 	add.w	r3, r3, #18	; 0x12
  4c:	61fb      	str	r3, [r7, #28]
  4e:	f240 0300 	movw	r3, #0	; 0x0
  52:	f2c0 0300 	movt	r3, #0	; 0x0
  56:	781a      	ldrb	r2, [r3, #0]
  58:	f240 0300 	movw	r3, #0	; 0x0
  5c:	f2c0 0300 	movt	r3, #0	; 0x0
  60:	781b      	ldrb	r3, [r3, #0]
  62:	429a      	cmp	r2, r3
  64:	d103      	bne.n	6e <menu_paint_cell+0x6e>
  66:	f44f 73a0 	mov.w	r3, #320	; 0x140
  6a:	607b      	str	r3, [r7, #4]
  6c:	e002      	b.n	74 <menu_paint_cell+0x74>
  6e:	f04f 03a0 	mov.w	r3, #160	; 0xa0
  72:	607b      	str	r3, [r7, #4]
  74:	687b      	ldr	r3, [r7, #4]
  76:	623b      	str	r3, [r7, #32]
  78:	6a3b      	ldr	r3, [r7, #32]
  7a:	f103 0201 	add.w	r2, r3, #1	; 0x1
  7e:	69bb      	ldr	r3, [r7, #24]
  80:	fb03 f302 	mul.w	r3, r3, r2
  84:	627b      	str	r3, [r7, #36]
  86:	f240 0300 	movw	r3, #0	; 0x0
  8a:	f2c0 0300 	movt	r3, #0	; 0x0
  8e:	781a      	ldrb	r2, [r3, #0]
  90:	f240 0300 	movw	r3, #0	; 0x0
  94:	f2c0 0300 	movt	r3, #0	; 0x0
  98:	781b      	ldrb	r3, [r3, #0]
  9a:	429a      	cmp	r2, r3
  9c:	d103      	bne.n	a6 <menu_paint_cell+0xa6>
  9e:	f04f 0337 	mov.w	r3, #55	; 0x37
  a2:	60bb      	str	r3, [r7, #8]
  a4:	e002      	b.n	ac <menu_paint_cell+0xac>
  a6:	f04f 030a 	mov.w	r3, #10	; 0xa
  aa:	60bb      	str	r3, [r7, #8]
  ac:	68bb      	ldr	r3, [r7, #8]
  ae:	62bb      	str	r3, [r7, #40]
  b0:	f44f 6309 	mov.w	r3, #2192	; 0x890
  b4:	85fb      	strh	r3, [r7, #46]
  b6:	68fa      	ldr	r2, [r7, #12]
  b8:	f240 0300 	movw	r3, #0	; 0x0
  bc:	f2c0 0300 	movt	r3, #0	; 0x0
  c0:	681b      	ldr	r3, [r3, #0]
  c2:	429a      	cmp	r2, r3
  c4:	d102      	bne.n	cc <menu_paint_cell+0xcc>
  c6:	f04f 0300 	mov.w	r3, #0	; 0x0
  ca:	85fb      	strh	r3, [r7, #46]
  cc:	f240 0300 	movw	r3, #0	; 0x0
  d0:	f2c0 0300 	movt	r3, #0	; 0x0
  d4:	681b      	ldr	r3, [r3, #0]
  d6:	f103 34ff 	add.w	r4, r3, #4294967295	; 0xffffffff
  da:	8dfb      	ldrh	r3, [r7, #46]
  dc:	9300      	str	r3, [sp, #0]
  de:	6a78      	ldr	r0, [r7, #36]
  e0:	69f9      	ldr	r1, [r7, #28]
  e2:	6a3a      	ldr	r2, [r7, #32]
  e4:	4623      	mov	r3, r4
  e6:	f7ff fffe 	bl	0 <lcd_fill>
  ea:	f240 0300 	movw	r3, #0	; 0x0
  ee:	f2c0 0300 	movt	r3, #0	; 0x0
  f2:	781b      	ldrb	r3, [r3, #0]
  f4:	461a      	mov	r2, r3
  f6:	68fb      	ldr	r3, [r7, #12]
  f8:	429a      	cmp	r2, r3
  fa:	dd31      	ble.n	160 <menu_paint_cell+0x160>
  fc:	6a7a      	ldr	r2, [r7, #36]
  fe:	6abb      	ldr	r3, [r7, #40]
 100:	eb02 0003 	add.w	r0, r2, r3
 104:	697a      	ldr	r2, [r7, #20]
 106:	f240 0300 	movw	r3, #0	; 0x0
 10a:	f2c0 0300 	movt	r3, #0	; 0x0
 10e:	681b      	ldr	r3, [r3, #0]
 110:	fb03 f202 	mul.w	r2, r3, r2
 114:	f240 0300 	movw	r3, #0	; 0x0
 118:	f2c0 0300 	movt	r3, #0	; 0x0
 11c:	681b      	ldr	r3, [r3, #0]
 11e:	ea4f 0353 	mov.w	r3, r3, lsr #1
 122:	4413      	add	r3, r2
 124:	f103 040a 	add.w	r4, r3, #10	; 0xa
 128:	f240 0300 	movw	r3, #0	; 0x0
 12c:	f2c0 0300 	movt	r3, #0	; 0x0
 130:	781b      	ldrb	r3, [r3, #0]
 132:	461a      	mov	r2, r3
 134:	f240 0300 	movw	r3, #0	; 0x0
 138:	f2c0 0300 	movt	r3, #0	; 0x0
 13c:	f853 1022 	ldr.w	r1, [r3, r2, lsl #2]
 140:	68fa      	ldr	r2, [r7, #12]
 142:	4613      	mov	r3, r2
 144:	ea4f 0383 	mov.w	r3, r3, lsl #2
 148:	4413      	add	r3, r2
 14a:	ea4f 0383 	mov.w	r3, r3, lsl #2
 14e:	440b      	add	r3, r1
 150:	681a      	ldr	r2, [r3, #0]
 152:	8dfb      	ldrh	r3, [r7, #46]
 154:	9300      	str	r3, [sp, #0]
 156:	4621      	mov	r1, r4
 158:	f64f 73ff 	movw	r3, #65535	; 0xffff
 15c:	f7ff fffe 	bl	0 <lcd_text_xy>
 160:	f107 0734 	add.w	r7, r7, #52	; 0x34
 164:	46bd      	mov	sp, r7
 166:	bd90      	pop	{r4, r7, pc}

Disassembly of section .text.menu_two_column:

00000000 <menu_two_column>:
   0:	b580      	push	{r7, lr}
   2:	b084      	sub	sp, #16
   4:	af02      	add	r7, sp, #8
   6:	f04f 0300 	mov.w	r3, #0	; 0x0
   a:	713b      	strb	r3, [r7, #4]
   c:	f04f 0300 	mov.w	r3, #0	; 0x0
  10:	717b      	strb	r3, [r7, #5]
  12:	f44f 6309 	mov.w	r3, #2192	; 0x890
  16:	80fb      	strh	r3, [r7, #6]
  18:	f240 0300 	movw	r3, #0	; 0x0
  1c:	f2c0 0300 	movt	r3, #0	; 0x0
  20:	781b      	ldrb	r3, [r3, #0]
  22:	ea4f 0353 	mov.w	r3, r3, lsr #1
  26:	b2da      	uxtb	r2, r3
  28:	f240 0300 	movw	r3, #0	; 0x0
  2c:	f2c0 0300 	movt	r3, #0	; 0x0
  30:	781b      	ldrb	r3, [r3, #0]
  32:	f003 0301 	and.w	r3, r3, #1	; 0x1
  36:	4413      	add	r3, r2
  38:	b2da      	uxtb	r2, r3
  3a:	f240 0300 	movw	r3, #0	; 0x0
  3e:	f2c0 0300 	movt	r3, #0	; 0x0
  42:	701a      	strb	r2, [r3, #0]
  44:	f240 0300 	movw	r3, #0	; 0x0
  48:	f2c0 0300 	movt	r3, #0	; 0x0
  4c:	781b      	ldrb	r3, [r3, #0]
  4e:	461a      	mov	r2, r3
  50:	f04f 03de 	mov.w	r3, #222	; 0xde
  54:	fb93 f3f2 	sdiv	r3, r3, r2
  58:	461a      	mov	r2, r3
  5a:	f240 0300 	movw	r3, #0	; 0x0
  5e:	f2c0 0300 	movt	r3, #0	; 0x0
  62:	601a      	str	r2, [r3, #0]
  64:	f64f 73ff 	movw	r3, #65535	; 0xffff
  68:	9300      	str	r3, [sp, #0]
  6a:	f04f 00a0 	mov.w	r0, #160	; 0xa0
  6e:	f04f 0112 	mov.w	r1, #18	; 0x12
  72:	f04f 0201 	mov.w	r2, #1	; 0x1
  76:	f04f 03de 	mov.w	r3, #222	; 0xde
  7a:	f7ff fffe 	bl	0 <lcd_fill>
  7e:	f04f 0300 	mov.w	r3, #0	; 0x0
  82:	70fb      	strb	r3, [r7, #3]
  84:	e01c      	b.n	c0 <menu_two_column+0xc0>
  86:	78fb      	ldrb	r3, [r7, #3]
  88:	f103 0301 	add.w	r3, r3, #1	; 0x1
  8c:	461a      	mov	r2, r3
  8e:	f240 0300 	movw	r3, #0	; 0x0
  92:	f2c0 0300 	movt	r3, #0	; 0x0
  96:	681b      	ldr	r3, [r3, #0]
  98:	fb03 f302 	mul.w	r3, r3, r2
  9c:	f103 0211 	add.w	r2, r3, #17	; 0x11
  a0:	f64f 73ff 	movw	r3, #65535	; 0xffff
  a4:	9300      	str	r3, [sp, #0]
  a6:	f04f 0000 	mov.w	r0, #0	; 0x0
  aa:	4611      	mov	r1, r2
  ac:	f44f 72a0 	mov.w	r2, #320	; 0x140
  b0:	f04f 0301 	mov.w	r3, #1	; 0x1
  b4:	f7ff fffe 	bl	0 <lcd_fill>
  b8:	78fb      	ldrb	r3, [r7, #3]
  ba:	f103 0301 	add.w	r3, r3, #1	; 0x1
  be:	70fb      	strb	r3, [r7, #3]
  c0:	78fa      	ldrb	r2, [r7, #3]
  c2:	f240 0300 	movw	r3, #0	; 0x0
  c6:	f2c0 0300 	movt	r3, #0	; 0x0
  ca:	781b      	ldrb	r3, [r3, #0]
  cc:	f103 33ff 	add.w	r3, r3, #4294967295	; 0xffffffff
  d0:	429a      	cmp	r2, r3
  d2:	dbd8      	blt.n	86 <menu_two_column+0x86>
  d4:	f04f 0300 	mov.w	r3, #0	; 0x0
  d8:	70fb      	strb	r3, [r7, #3]
  da:	e007      	b.n	ec <menu_two_column+0xec>
  dc:	78fb      	ldrb	r3, [r7, #3]
  de:	4618      	mov	r0, r3
  e0:	f7ff fffe 	bl	0 <menu_two_column>
  e4:	78fb      	ldrb	r3, [r7, #3]
  e6:	f103 0301 	add.w	r3, r3, #1	; 0x1
  ea:	70fb      	strb	r3, [r7, #3]
  ec:	f240 0300 	movw	r3, #0	; 0x0
  f0:	f2c0 0300 	movt	r3, #0	; 0x0
  f4:	781b      	ldrb	r3, [r3, #0]
  f6:	461a      	mov	r2, r3
  f8:	f240 0300 	movw	r3, #0	; 0x0
  fc:	f2c0 0300 	movt	r3, #0	; 0x0
 100:	f853 1022 	ldr.w	r1, [r3, r2, lsl #2]
 104:	78fa      	ldrb	r2, [r7, #3]
 106:	4613      	mov	r3, r2
 108:	ea4f 0383 	mov.w	r3, r3, lsl #2
 10c:	4413      	add	r3, r2
 10e:	ea4f 0383 	mov.w	r3, r3, lsl #2
 112:	440b      	add	r3, r1
 114:	681b      	ldr	r3, [r3, #0]
 116:	2b00      	cmp	r3, #0
 118:	d1e0      	bne.n	dc <menu_two_column+0xdc>
 11a:	f107 0708 	add.w	r7, r7, #8	; 0x8
 11e:	46bd      	mov	sp, r7
 120:	bd80      	pop	{r7, pc}
 122:	bf00      	nop

Disassembly of section .text.menu_paint_row:

00000000 <menu_paint_row>:
   0:	b480      	push	{r7}
   2:	b085      	sub	sp, #20
   4:	af00      	add	r7, sp, #0
   6:	6078      	str	r0, [r7, #4]
   8:	687a      	ldr	r2, [r7, #4]
   a:	f240 0300 	movw	r3, #0	; 0x0
   e:	f2c0 0300 	movt	r3, #0	; 0x0
  12:	681b      	ldr	r3, [r3, #0]
  14:	fb03 f302 	mul.w	r3, r3, r2
  18:	f103 0312 	add.w	r3, r3, #18	; 0x12
  1c:	60bb      	str	r3, [r7, #8]
  1e:	f44f 6309 	mov.w	r3, #2192	; 0x890
  22:	81fb      	strh	r3, [r7, #14]
  24:	f107 0714 	add.w	r7, r7, #20	; 0x14
  28:	46bd      	mov	sp, r7
  2a:	bc80      	pop	{r7}
  2c:	4770      	bx	lr
  2e:	bf00      	nop

Disassembly of section .text.menu_update:

00000000 <menu_update>:
   0:	b590      	push	{r4, r7, lr}
   2:	b09b      	sub	sp, #108
   4:	af02      	add	r7, sp, #8
   6:	f7ff fffe 	bl	0 <xTaskGetTickCount>
   a:	4603      	mov	r3, r0
   c:	461a      	mov	r2, r3
   e:	f240 0300 	movw	r3, #0	; 0x0
  12:	f2c0 0300 	movt	r3, #0	; 0x0
  16:	601a      	str	r2, [r3, #0]
  18:	f44f 6309 	mov.w	r3, #2192	; 0x890
  1c:	f8a7 305e 	strh.w	r3, [r7, #94]
  20:	f7ff fffe 	bl	0 <lcd_lock>
  24:	f04f 0000 	mov.w	r0, #0	; 0x0
  28:	f7ff fffe 	bl	0 <lcd_background>
  2c:	f8b7 305e 	ldrh.w	r3, [r7, #94]
  30:	9300      	str	r3, [sp, #0]
  32:	f04f 0000 	mov.w	r0, #0	; 0x0
  36:	f04f 0112 	mov.w	r1, #18	; 0x12
  3a:	f44f 72a0 	mov.w	r2, #320	; 0x140
  3e:	f04f 03de 	mov.w	r3, #222	; 0xde
  42:	f7ff fffe 	bl	0 <lcd_fill>
  46:	f240 0300 	movw	r3, #0	; 0x0
  4a:	f2c0 0300 	movt	r3, #0	; 0x0
  4e:	f107 0203 	add.w	r2, r7, #3	; 0x3
  52:	f04f 0408 	mov.w	r4, #8	; 0x8
  56:	4610      	mov	r0, r2
  58:	4619      	mov	r1, r3
  5a:	4622      	mov	r2, r4
  5c:	f7ff fffe 	bl	0 <memcpy>
  60:	f107 030b 	add.w	r3, r7, #11	; 0xb
  64:	f04f 0252 	mov.w	r2, #82	; 0x52
  68:	4618      	mov	r0, r3
  6a:	f04f 0100 	mov.w	r1, #0	; 0x0
  6e:	f7ff fffe 	bl	0 <memset>
  72:	f04f 0301 	mov.w	r3, #1	; 0x1
  76:	f887 305d 	strb.w	r3, [r7, #93]
  7a:	e039      	b.n	f0 <menu_update+0xf0>
  7c:	f107 0403 	add.w	r4, r7, #3	; 0x3
  80:	f107 0303 	add.w	r3, r7, #3	; 0x3
  84:	4618      	mov	r0, r3
  86:	f7ff fffe 	bl	0 <strlen>
  8a:	4603      	mov	r3, r0
  8c:	4423      	add	r3, r4
  8e:	4618      	mov	r0, r3
  90:	f240 0100 	movw	r1, #0	; 0x0
  94:	f2c0 0100 	movt	r1, #0	; 0x0
  98:	f04f 0202 	mov.w	r2, #2	; 0x2
  9c:	f7ff fffe 	bl	0 <memcpy>
  a0:	f897 305d 	ldrb.w	r3, [r7, #93]
  a4:	f103 32ff 	add.w	r2, r3, #4294967295	; 0xffffffff
  a8:	f240 0300 	movw	r3, #0	; 0x0
  ac:	f2c0 0300 	movt	r3, #0	; 0x0
  b0:	f853 1022 	ldr.w	r1, [r3, r2, lsl #2]
  b4:	f897 305d 	ldrb.w	r3, [r7, #93]
  b8:	f103 32ff 	add.w	r2, r3, #4294967295	; 0xffffffff
  bc:	f240 0300 	movw	r3, #0	; 0x0
  c0:	f2c0 0300 	movt	r3, #0	; 0x0
  c4:	5c9b      	ldrb	r3, [r3, r2]
  c6:	461a      	mov	r2, r3
  c8:	4613      	mov	r3, r2
  ca:	ea4f 0383 	mov.w	r3, r3, lsl #2
  ce:	4413      	add	r3, r2
  d0:	ea4f 0383 	mov.w	r3, r3, lsl #2
  d4:	440b      	add	r3, r1
  d6:	681a      	ldr	r2, [r3, #0]
  d8:	f107 0303 	add.w	r3, r7, #3	; 0x3
  dc:	4618      	mov	r0, r3
  de:	4611      	mov	r1, r2
  e0:	f7ff fffe 	bl	0 <strcat>
  e4:	f897 305d 	ldrb.w	r3, [r7, #93]
  e8:	f103 0301 	add.w	r3, r3, #1	; 0x1
  ec:	f887 305d 	strb.w	r3, [r7, #93]
  f0:	f240 0300 	movw	r3, #0	; 0x0
  f4:	f2c0 0300 	movt	r3, #0	; 0x0
  f8:	781a      	ldrb	r2, [r3, #0]
  fa:	f897 305d 	ldrb.w	r3, [r7, #93]
  fe:	4293      	cmp	r3, r2
 100:	d9bc      	bls.n	7c <menu_update+0x7c>
 102:	f04f 0300 	mov.w	r3, #0	; 0x0
 106:	9300      	str	r3, [sp, #0]
 108:	f04f 0000 	mov.w	r0, #0	; 0x0
 10c:	f04f 0100 	mov.w	r1, #0	; 0x0
 110:	f44f 72a0 	mov.w	r2, #320	; 0x140
 114:	f04f 0312 	mov.w	r3, #18	; 0x12
 118:	f7ff fffe 	bl	0 <lcd_fill>
 11c:	f107 0303 	add.w	r3, r7, #3	; 0x3
 120:	f04f 0000 	mov.w	r0, #0	; 0x0
 124:	f04f 0100 	mov.w	r1, #0	; 0x0
 128:	461a      	mov	r2, r3
 12a:	f7ff fffe 	bl	0 <lcd_text>
 12e:	f64f 73ff 	movw	r3, #65535	; 0xffff
 132:	9300      	str	r3, [sp, #0]
 134:	f04f 0000 	mov.w	r0, #0	; 0x0
 138:	f04f 0110 	mov.w	r1, #16	; 0x10
 13c:	f44f 72a0 	mov.w	r2, #320	; 0x140
 140:	f04f 0302 	mov.w	r3, #2	; 0x2
 144:	f7ff fffe 	bl	0 <lcd_fill>
 148:	f240 0300 	movw	r3, #0	; 0x0
 14c:	f2c0 0300 	movt	r3, #0	; 0x0
 150:	f04f 0200 	mov.w	r2, #0	; 0x0
 154:	701a      	strb	r2, [r3, #0]
 156:	f04f 0300 	mov.w	r3, #0	; 0x0
 15a:	f887 305d 	strb.w	r3, [r7, #93]
 15e:	e012      	b.n	28 <menu_update+0x28>
 160:	f240 0300 	movw	r3, #0	; 0x0
 164:	f2c0 0300 	movt	r3, #0	; 0x0
 168:	781b      	ldrb	r3, [r3, #0]
 16a:	f103 0301 	add.w	r3, r3, #1	; 0x1
 16e:	b2da      	uxtb	r2, r3
 170:	f240 0300 	movw	r3, #0	; 0x0
 174:	f2c0 0300 	movt	r3, #0	; 0x0
 178:	701a      	strb	r2, [r3, #0]
 17a:	f897 305d 	ldrb.w	r3, [r7, #93]
 17e:	f103 0301 	add.w	r3, r3, #1	; 0x1
 182:	f887 305d 	strb.w	r3, [r7, #93]
 186:	f240 0300 	movw	r3, #0	; 0x0
 18a:	f2c0 0300 	movt	r3, #0	; 0x0
 18e:	781b      	ldrb	r3, [r3, #0]
 190:	461a      	mov	r2, r3
 192:	f240 0300 	movw	r3, #0	; 0x0
 196:	f2c0 0300 	movt	r3, #0	; 0x0
 19a:	f853 1022 	ldr.w	r1, [r3, r2, lsl #2]
 19e:	f897 205d 	ldrb.w	r2, [r7, #93]
 1a2:	4613      	mov	r3, r2
 1a4:	ea4f 0383 	mov.w	r3, r3, lsl #2
 1a8:	4413      	add	r3, r2
 1aa:	ea4f 0383 	mov.w	r3, r3, lsl #2
 1ae:	440b      	add	r3, r1
 1b0:	681b      	ldr	r3, [r3, #0]
 1b2:	2b00      	cmp	r3, #0
 1b4:	d1d4      	bne.n	160 <menu_update+0x160>
 1b6:	f240 0300 	movw	r3, #0	; 0x0
 1ba:	f2c0 0300 	movt	r3, #0	; 0x0
 1be:	781b      	ldrb	r3, [r3, #0]
 1c0:	2b04      	cmp	r3, #4
 1c2:	d902      	bls.n	1ca <menu_update+0x1ca>
 1c4:	f7ff fffe 	bl	0 <menu_update>
 1c8:	e066      	b.n	d0 <menu_update+0xd0>
 1ca:	f240 0300 	movw	r3, #0	; 0x0
 1ce:	f2c0 0300 	movt	r3, #0	; 0x0
 1d2:	781a      	ldrb	r2, [r3, #0]
 1d4:	f240 0300 	movw	r3, #0	; 0x0
 1d8:	f2c0 0300 	movt	r3, #0	; 0x0
 1dc:	701a      	strb	r2, [r3, #0]
 1de:	f240 0300 	movw	r3, #0	; 0x0
 1e2:	f2c0 0300 	movt	r3, #0	; 0x0
 1e6:	781b      	ldrb	r3, [r3, #0]
 1e8:	461a      	mov	r2, r3
 1ea:	f04f 03de 	mov.w	r3, #222	; 0xde
 1ee:	fb93 f3f2 	sdiv	r3, r3, r2
 1f2:	461a      	mov	r2, r3
 1f4:	f240 0300 	movw	r3, #0	; 0x0
 1f8:	f2c0 0300 	movt	r3, #0	; 0x0
 1fc:	601a      	str	r2, [r3, #0]
 1fe:	f04f 0300 	mov.w	r3, #0	; 0x0
 202:	f887 305d 	strb.w	r3, [r7, #93]
 206:	e02f      	b.n	268 <menu_update+0x268>
 208:	f897 305d 	ldrb.w	r3, [r7, #93]
 20c:	4618      	mov	r0, r3
 20e:	f7ff fffe 	bl	0 <menu_update>
 212:	f897 205d 	ldrb.w	r2, [r7, #93]
 216:	f240 0300 	movw	r3, #0	; 0x0
 21a:	f2c0 0300 	movt	r3, #0	; 0x0
 21e:	781b      	ldrb	r3, [r3, #0]
 220:	f103 33ff 	add.w	r3, r3, #4294967295	; 0xffffffff
 224:	429a      	cmp	r2, r3
 226:	d019      	beq.n	25c <menu_update+0x25c>
 228:	f897 305d 	ldrb.w	r3, [r7, #93]
 22c:	f103 0301 	add.w	r3, r3, #1	; 0x1
 230:	461a      	mov	r2, r3
 232:	f240 0300 	movw	r3, #0	; 0x0
 236:	f2c0 0300 	movt	r3, #0	; 0x0
 23a:	681b      	ldr	r3, [r3, #0]
 23c:	fb03 f302 	mul.w	r3, r3, r2
 240:	f103 0211 	add.w	r2, r3, #17	; 0x11
 244:	f64f 73ff 	movw	r3, #65535	; 0xffff
 248:	9300      	str	r3, [sp, #0]
 24a:	f04f 0000 	mov.w	r0, #0	; 0x0
 24e:	4611      	mov	r1, r2
 250:	f44f 72a0 	mov.w	r2, #320	; 0x140
 254:	f04f 0301 	mov.w	r3, #1	; 0x1
 258:	f7ff fffe 	bl	0 <lcd_fill>
 25c:	f897 305d 	ldrb.w	r3, [r7, #93]
 260:	f103 0301 	add.w	r3, r3, #1	; 0x1
 264:	f887 305d 	strb.w	r3, [r7, #93]
 268:	f240 0300 	movw	r3, #0	; 0x0
 26c:	f2c0 0300 	movt	r3, #0	; 0x0
 270:	781b      	ldrb	r3, [r3, #0]
 272:	461a      	mov	r2, r3
 274:	f240 0300 	movw	r3, #0	; 0x0
 278:	f2c0 0300 	movt	r3, #0	; 0x0
 27c:	f853 1022 	ldr.w	r1, [r3, r2, lsl #2]
 280:	f897 205d 	ldrb.w	r2, [r7, #93]
 284:	4613      	mov	r3, r2
 286:	ea4f 0383 	mov.w	r3, r3, lsl #2
 28a:	4413      	add	r3, r2
 28c:	ea4f 0383 	mov.w	r3, r3, lsl #2
 290:	440b      	add	r3, r1
 292:	681b      	ldr	r3, [r3, #0]
 294:	2b00      	cmp	r3, #0
 296:	d1b7      	bne.n	208 <menu_update+0x208>
 298:	f7ff fffe 	bl	0 <xTaskGetTickCount>
 29c:	4603      	mov	r3, r0
 29e:	461a      	mov	r2, r3
 2a0:	f240 0300 	movw	r3, #0	; 0x0
 2a4:	f2c0 0300 	movt	r3, #0	; 0x0
 2a8:	681b      	ldr	r3, [r3, #0]
 2aa:	ebc3 0302 	rsb	r3, r3, r2
 2ae:	9300      	str	r3, [sp, #0]
 2b0:	f04f 001e 	mov.w	r0, #30	; 0x1e
 2b4:	f04f 0100 	mov.w	r1, #0	; 0x0
 2b8:	f04f 020a 	mov.w	r2, #10	; 0xa
 2bc:	f240 0300 	movw	r3, #0	; 0x0
 2c0:	f2c0 0300 	movt	r3, #0	; 0x0
 2c4:	f7ff fffe 	bl	0 <lcd_printf>
 2c8:	f7ff fffe 	bl	0 <lcd_release>
 2cc:	f107 0764 	add.w	r7, r7, #100	; 0x64
 2d0:	46bd      	mov	sp, r7
 2d2:	bd90      	pop	{r4, r7, pc}

Disassembly of section .text.menu_set_root:

00000000 <menu_set_root>:
   0:	b580      	push	{r7, lr}
   2:	b082      	sub	sp, #8
   4:	af00      	add	r7, sp, #0
   6:	6078      	str	r0, [r7, #4]
   8:	f240 0300 	movw	r3, #0	; 0x0
   c:	f2c0 0300 	movt	r3, #0	; 0x0
  10:	687a      	ldr	r2, [r7, #4]
  12:	601a      	str	r2, [r3, #0]
  14:	f7ff fffe 	bl	0 <menu_set_root>
  18:	f107 0708 	add.w	r7, r7, #8	; 0x8
  1c:	46bd      	mov	sp, r7
  1e:	bd80      	pop	{r7, pc}

Disassembly of section .text.menu_back_after_applet:

00000000 <menu_back_after_applet>:
   0:	b580      	push	{r7, lr}
   2:	b082      	sub	sp, #8
   4:	af00      	add	r7, sp, #0
   6:	f240 0300 	movw	r3, #0	; 0x0
   a:	f2c0 0300 	movt	r3, #0	; 0x0
   e:	781b      	ldrb	r3, [r3, #0]
  10:	461a      	mov	r2, r3
  12:	f240 0300 	movw	r3, #0	; 0x0
  16:	f2c0 0300 	movt	r3, #0	; 0x0
  1a:	f853 1022 	ldr.w	r1, [r3, r2, lsl #2]
  1e:	f240 0300 	movw	r3, #0	; 0x0
  22:	f2c0 0300 	movt	r3, #0	; 0x0
  26:	681a      	ldr	r2, [r3, #0]
  28:	4613      	mov	r3, r2
  2a:	ea4f 0383 	mov.w	r3, r3, lsl #2
  2e:	4413      	add	r3, r2
  30:	ea4f 0383 	mov.w	r3, r3, lsl #2
  34:	440b      	add	r3, r1
  36:	689b      	ldr	r3, [r3, #8]
  38:	607b      	str	r3, [r7, #4]
  3a:	687b      	ldr	r3, [r7, #4]
  3c:	2b00      	cmp	r3, #0
  3e:	d003      	beq.n	48 <menu_back_after_applet+0x48>
  40:	687b      	ldr	r3, [r7, #4]
  42:	f04f 0000 	mov.w	r0, #0	; 0x0
  46:	4798      	blx	r3
  48:	f240 0300 	movw	r3, #0	; 0x0
  4c:	f2c0 0300 	movt	r3, #0	; 0x0
  50:	f04f 32ff 	mov.w	r2, #4294967295	; 0xffffffff
  54:	601a      	str	r2, [r3, #0]
  56:	f7ff fffe 	bl	0 <menu_back_after_applet>
  5a:	f240 0300 	movw	r3, #0	; 0x0
  5e:	f2c0 0300 	movt	r3, #0	; 0x0
  62:	f04f 0200 	mov.w	r2, #0	; 0x0
  66:	601a      	str	r2, [r3, #0]
  68:	f04f 0001 	mov.w	r0, #1	; 0x1
  6c:	f7ff fffe 	bl	0 <menu_back_after_applet>
  70:	f107 0708 	add.w	r7, r7, #8	; 0x8
  74:	46bd      	mov	sp, r7
  76:	bd80      	pop	{r7, pc}

Disassembly of section .text.menu_touch:

00000000 <menu_touch>:
   0:	b580      	push	{r7, lr}
   2:	b084      	sub	sp, #16
   4:	af00      	add	r7, sp, #0
   6:	6078      	str	r0, [r7, #4]
   8:	6039      	str	r1, [r7, #0]
   a:	f240 0300 	movw	r3, #0	; 0x0
   e:	f2c0 0300 	movt	r3, #0	; 0x0
  12:	681b      	ldr	r3, [r3, #0]
  14:	2b00      	cmp	r3, #0
  16:	d00e      	beq.n	36 <menu_touch+0x36>
  18:	f240 0300 	movw	r3, #0	; 0x0
  1c:	f2c0 0300 	movt	r3, #0	; 0x0
  20:	681b      	ldr	r3, [r3, #0]
  22:	6878      	ldr	r0, [r7, #4]
  24:	6839      	ldr	r1, [r7, #0]
  26:	4798      	blx	r3
  28:	4603      	mov	r3, r0
  2a:	2b00      	cmp	r3, #0
  2c:	f000 81b5 	beq.w	39a <menu_touch+0x39a>
  30:	f7ff fffe 	bl	0 <menu_touch>
  34:	e1b1      	b.n	366 <menu_touch+0x366>
  36:	f240 0300 	movw	r3, #0	; 0x0
  3a:	f2c0 0300 	movt	r3, #0	; 0x0
  3e:	683a      	ldr	r2, [r7, #0]
  40:	601a      	str	r2, [r3, #0]
  42:	f240 0300 	movw	r3, #0	; 0x0
  46:	f2c0 0300 	movt	r3, #0	; 0x0
  4a:	687a      	ldr	r2, [r7, #4]
  4c:	601a      	str	r2, [r3, #0]
  4e:	f240 0300 	movw	r3, #0	; 0x0
  52:	f2c0 0300 	movt	r3, #0	; 0x0
  56:	681b      	ldr	r3, [r3, #0]
  58:	60bb      	str	r3, [r7, #8]
  5a:	f7ff fffe 	bl	0 <menu_touch>
  5e:	4603      	mov	r3, r0
  60:	461a      	mov	r2, r3
  62:	f240 0300 	movw	r3, #0	; 0x0
  66:	f2c0 0300 	movt	r3, #0	; 0x0
  6a:	601a      	str	r2, [r3, #0]
  6c:	f7ff fffe 	bl	0 <lcd_lock>
  70:	68bb      	ldr	r3, [r7, #8]
  72:	f1b3 3fff 	cmp.w	r3, #4294967295	; 0xffffffff
  76:	d002      	beq.n	7e <menu_touch+0x7e>
  78:	68b8      	ldr	r0, [r7, #8]
  7a:	f7ff fffe 	bl	0 <menu_touch>
  7e:	f240 0300 	movw	r3, #0	; 0x0
  82:	f2c0 0300 	movt	r3, #0	; 0x0
  86:	681b      	ldr	r3, [r3, #0]
  88:	f1b3 3fff 	cmp.w	r3, #4294967295	; 0xffffffff
  8c:	d007      	beq.n	12 <menu_touch+0x12>
  8e:	f240 0300 	movw	r3, #0	; 0x0
  92:	f2c0 0300 	movt	r3, #0	; 0x0
  96:	681b      	ldr	r3, [r3, #0]
  98:	4618      	mov	r0, r3
  9a:	f7ff fffe 	bl	0 <menu_touch>
  9e:	f7ff fffe 	bl	0 <lcd_release>
  a2:	687b      	ldr	r3, [r7, #4]
  a4:	f1b3 3fff 	cmp.w	r3, #4294967295	; 0xffffffff
  a8:	d00c      	beq.n	c4 <menu_touch+0xc4>
  aa:	683b      	ldr	r3, [r7, #0]
  ac:	f1b3 3fff 	cmp.w	r3, #4294967295	; 0xffffffff
  b0:	d008      	beq.n	14 <menu_touch+0x14>
  b2:	f240 0300 	movw	r3, #0	; 0x0
  b6:	f2c0 0300 	movt	r3, #0	; 0x0
  ba:	681b      	ldr	r3, [r3, #0]
  bc:	f1b3 3fff 	cmp.w	r3, #4294967295	; 0xffffffff
  c0:	f040 8126 	bne.w	310 <menu_touch+0x310>
  c4:	68bb      	ldr	r3, [r7, #8]
  c6:	f1b3 3fff 	cmp.w	r3, #4294967295	; 0xffffffff
  ca:	f000 8166 	beq.w	39a <menu_touch+0x39a>
  ce:	f240 0300 	movw	r3, #0	; 0x0
  d2:	f2c0 0300 	movt	r3, #0	; 0x0
  d6:	781b      	ldrb	r3, [r3, #0]
  d8:	461a      	mov	r2, r3
  da:	f240 0300 	movw	r3, #0	; 0x0
  de:	f2c0 0300 	movt	r3, #0	; 0x0
  e2:	f853 1022 	ldr.w	r1, [r3, r2, lsl #2]
  e6:	68ba      	ldr	r2, [r7, #8]
  e8:	4613      	mov	r3, r2
  ea:	ea4f 0383 	mov.w	r3, r3, lsl #2
  ee:	4413      	add	r3, r2
  f0:	ea4f 0383 	mov.w	r3, r3, lsl #2
  f4:	440b      	add	r3, r1
  f6:	68db      	ldr	r3, [r3, #12]
  f8:	2b00      	cmp	r3, #0
  fa:	d017      	beq.n	12c <menu_touch+0x12c>
  fc:	f240 0300 	movw	r3, #0	; 0x0
 100:	f2c0 0300 	movt	r3, #0	; 0x0
 104:	781b      	ldrb	r3, [r3, #0]
 106:	461a      	mov	r2, r3
 108:	f240 0300 	movw	r3, #0	; 0x0
 10c:	f2c0 0300 	movt	r3, #0	; 0x0
 110:	f853 1022 	ldr.w	r1, [r3, r2, lsl #2]
 114:	68ba      	ldr	r2, [r7, #8]
 116:	4613      	mov	r3, r2
 118:	ea4f 0383 	mov.w	r3, r3, lsl #2
 11c:	4413      	add	r3, r2
 11e:	ea4f 0383 	mov.w	r3, r3, lsl #2
 122:	440b      	add	r3, r1
 124:	68db      	ldr	r3, [r3, #12]
 126:	f04f 0000 	mov.w	r0, #0	; 0x0
 12a:	4798      	blx	r3
 12c:	f240 0300 	movw	r3, #0	; 0x0
 130:	f2c0 0300 	movt	r3, #0	; 0x0
 134:	781b      	ldrb	r3, [r3, #0]
 136:	461a      	mov	r2, r3
 138:	f240 0300 	movw	r3, #0	; 0x0
 13c:	f2c0 0300 	movt	r3, #0	; 0x0
 140:	f853 1022 	ldr.w	r1, [r3, r2, lsl #2]
 144:	68ba      	ldr	r2, [r7, #8]
 146:	4613      	mov	r3, r2
 148:	ea4f 0383 	mov.w	r3, r3, lsl #2
 14c:	4413      	add	r3, r2
 14e:	ea4f 0383 	mov.w	r3, r3, lsl #2
 152:	440b      	add	r3, r1
 154:	689b      	ldr	r3, [r3, #8]
 156:	60fb      	str	r3, [r7, #12]
 158:	f240 0300 	movw	r3, #0	; 0x0
 15c:	f2c0 0300 	movt	r3, #0	; 0x0
 160:	781b      	ldrb	r3, [r3, #0]
 162:	4619      	mov	r1, r3
 164:	68bb      	ldr	r3, [r7, #8]
 166:	b2da      	uxtb	r2, r3
 168:	f240 0300 	movw	r3, #0	; 0x0
 16c:	f2c0 0300 	movt	r3, #0	; 0x0
 170:	545a      	strb	r2, [r3, r1]
 172:	f240 0300 	movw	r3, #0	; 0x0
 176:	f2c0 0300 	movt	r3, #0	; 0x0
 17a:	781b      	ldrb	r3, [r3, #0]
 17c:	461a      	mov	r2, r3
 17e:	f240 0300 	movw	r3, #0	; 0x0
 182:	f2c0 0300 	movt	r3, #0	; 0x0
 186:	f853 1022 	ldr.w	r1, [r3, r2, lsl #2]
 18a:	68ba      	ldr	r2, [r7, #8]
 18c:	4613      	mov	r3, r2
 18e:	ea4f 0383 	mov.w	r3, r3, lsl #2
 192:	4413      	add	r3, r2
 194:	ea4f 0383 	mov.w	r3, r3, lsl #2
 198:	440b      	add	r3, r1
 19a:	685b      	ldr	r3, [r3, #4]
 19c:	2b00      	cmp	r3, #0
 19e:	d038      	beq.n	212 <menu_touch+0x212>
 1a0:	f240 0300 	movw	r3, #0	; 0x0
 1a4:	f2c0 0300 	movt	r3, #0	; 0x0
 1a8:	781b      	ldrb	r3, [r3, #0]
 1aa:	2b09      	cmp	r3, #9
 1ac:	d831      	bhi.n	212 <menu_touch+0x212>
 1ae:	f240 0300 	movw	r3, #0	; 0x0
 1b2:	f2c0 0300 	movt	r3, #0	; 0x0
 1b6:	781b      	ldrb	r3, [r3, #0]
 1b8:	f103 0301 	add.w	r3, r3, #1	; 0x1
 1bc:	b2da      	uxtb	r2, r3
 1be:	f240 0300 	movw	r3, #0	; 0x0
 1c2:	f2c0 0300 	movt	r3, #0	; 0x0
 1c6:	701a      	strb	r2, [r3, #0]
 1c8:	f240 0300 	movw	r3, #0	; 0x0
 1cc:	f2c0 0300 	movt	r3, #0	; 0x0
 1d0:	781b      	ldrb	r3, [r3, #0]
 1d2:	4618      	mov	r0, r3
 1d4:	f240 0300 	movw	r3, #0	; 0x0
 1d8:	f2c0 0300 	movt	r3, #0	; 0x0
 1dc:	781b      	ldrb	r3, [r3, #0]
 1de:	f103 32ff 	add.w	r2, r3, #4294967295	; 0xffffffff
 1e2:	f240 0300 	movw	r3, #0	; 0x0
 1e6:	f2c0 0300 	movt	r3, #0	; 0x0
 1ea:	f853 1022 	ldr.w	r1, [r3, r2, lsl #2]
 1ee:	68ba      	ldr	r2, [r7, #8]
 1f0:	4613      	mov	r3, r2
 1f2:	ea4f 0383 	mov.w	r3, r3, lsl #2
 1f6:	4413      	add	r3, r2
 1f8:	ea4f 0383 	mov.w	r3, r3, lsl #2
 1fc:	440b      	add	r3, r1
 1fe:	685a      	ldr	r2, [r3, #4]
 200:	f240 0300 	movw	r3, #0	; 0x0
 204:	f2c0 0300 	movt	r3, #0	; 0x0
 208:	f843 2020 	str.w	r2, [r3, r0, lsl #2]
 20c:	f7ff fffe 	bl	0 <menu_touch>
 210:	e076      	b.n	f0 <menu_touch+0xf0>
 212:	f240 0300 	movw	r3, #0	; 0x0
 216:	f2c0 0300 	movt	r3, #0	; 0x0
 21a:	781b      	ldrb	r3, [r3, #0]
 21c:	461a      	mov	r2, r3
 21e:	f240 0300 	movw	r3, #0	; 0x0
 222:	f2c0 0300 	movt	r3, #0	; 0x0
 226:	f853 1022 	ldr.w	r1, [r3, r2, lsl #2]
 22a:	68ba      	ldr	r2, [r7, #8]
 22c:	4613      	mov	r3, r2
 22e:	ea4f 0383 	mov.w	r3, r3, lsl #2
 232:	4413      	add	r3, r2
 234:	ea4f 0383 	mov.w	r3, r3, lsl #2
 238:	440b      	add	r3, r1
 23a:	691b      	ldr	r3, [r3, #16]
 23c:	2b00      	cmp	r3, #0
 23e:	d022      	beq.n	286 <menu_touch+0x286>
 240:	f240 0300 	movw	r3, #0	; 0x0
 244:	f2c0 0300 	movt	r3, #0	; 0x0
 248:	781b      	ldrb	r3, [r3, #0]
 24a:	461a      	mov	r2, r3
 24c:	f240 0300 	movw	r3, #0	; 0x0
 250:	f2c0 0300 	movt	r3, #0	; 0x0
 254:	f853 1022 	ldr.w	r1, [r3, r2, lsl #2]
 258:	68ba      	ldr	r2, [r7, #8]
 25a:	4613      	mov	r3, r2
 25c:	ea4f 0383 	mov.w	r3, r3, lsl #2
 260:	4413      	add	r3, r2
 262:	ea4f 0383 	mov.w	r3, r3, lsl #2
 266:	440b      	add	r3, r1
 268:	691a      	ldr	r2, [r3, #16]
 26a:	f240 0300 	movw	r3, #0	; 0x0
 26e:	f2c0 0300 	movt	r3, #0	; 0x0
 272:	601a      	str	r2, [r3, #0]
 274:	68ba      	ldr	r2, [r7, #8]
 276:	f240 0300 	movw	r3, #0	; 0x0
 27a:	f2c0 0300 	movt	r3, #0	; 0x0
 27e:	601a      	str	r2, [r3, #0]
 280:	f7ff fffe 	bl	0 <menu_touch>
 284:	e03c      	b.n	7c <menu_touch+0x7c>
 286:	f240 0300 	movw	r3, #0	; 0x0
 28a:	f2c0 0300 	movt	r3, #0	; 0x0
 28e:	781b      	ldrb	r3, [r3, #0]
 290:	461a      	mov	r2, r3
 292:	f240 0300 	movw	r3, #0	; 0x0
 296:	f2c0 0300 	movt	r3, #0	; 0x0
 29a:	f853 1022 	ldr.w	r1, [r3, r2, lsl #2]
 29e:	68ba      	ldr	r2, [r7, #8]
 2a0:	4613      	mov	r3, r2
 2a2:	ea4f 0383 	mov.w	r3, r3, lsl #2
 2a6:	4413      	add	r3, r2
 2a8:	ea4f 0383 	mov.w	r3, r3, lsl #2
 2ac:	440b      	add	r3, r1
 2ae:	681b      	ldr	r3, [r3, #0]
 2b0:	4618      	mov	r0, r3
 2b2:	f240 0100 	movw	r1, #0	; 0x0
 2b6:	f2c0 0100 	movt	r1, #0	; 0x0
 2ba:	f7ff fffe 	bl	0 <strcmp>
 2be:	4603      	mov	r3, r0
 2c0:	2b00      	cmp	r3, #0
 2c2:	d11d      	bne.n	300 <menu_touch+0x300>
 2c4:	f04f 0000 	mov.w	r0, #0	; 0x0
 2c8:	f7ff fffe 	bl	0 <menu_touch>
 2cc:	f240 0300 	movw	r3, #0	; 0x0
 2d0:	f2c0 0300 	movt	r3, #0	; 0x0
 2d4:	781b      	ldrb	r3, [r3, #0]
 2d6:	2b00      	cmp	r3, #0
 2d8:	d00c      	beq.n	2f4 <menu_touch+0x2f4>
 2da:	f240 0300 	movw	r3, #0	; 0x0
 2de:	f2c0 0300 	movt	r3, #0	; 0x0
 2e2:	781b      	ldrb	r3, [r3, #0]
 2e4:	f103 33ff 	add.w	r3, r3, #4294967295	; 0xffffffff
 2e8:	b2da      	uxtb	r2, r3
 2ea:	f240 0300 	movw	r3, #0	; 0x0
 2ee:	f2c0 0300 	movt	r3, #0	; 0x0
 2f2:	701a      	strb	r2, [r3, #0]
 2f4:	f7ff fffe 	bl	0 <menu_touch>
 2f8:	f04f 0001 	mov.w	r0, #1	; 0x1
 2fc:	f7ff fffe 	bl	0 <menu_touch>
 300:	68fb      	ldr	r3, [r7, #12]
 302:	2b00      	cmp	r3, #0
 304:	d049      	beq.n	39a <menu_touch+0x39a>
 306:	68fb      	ldr	r3, [r7, #12]
 308:	f04f 0001 	mov.w	r0, #1	; 0x1
 30c:	4798      	blx	r3
 30e:	e044      	b.n	39a <menu_touch+0x39a>
 310:	f240 0300 	movw	r3, #0	; 0x0
 314:	f2c0 0300 	movt	r3, #0	; 0x0
 318:	f04f 0200 	mov.w	r2, #0	; 0x0
 31c:	601a      	str	r2, [r3, #0]
 31e:	f240 0300 	movw	r3, #0	; 0x0
 322:	f2c0 0300 	movt	r3, #0	; 0x0
 326:	f04f 0200 	mov.w	r2, #0	; 0x0
 32a:	601a      	str	r2, [r3, #0]
 32c:	f240 0300 	movw	r3, #0	; 0x0
 330:	f2c0 0300 	movt	r3, #0	; 0x0
 334:	781b      	ldrb	r3, [r3, #0]
 336:	461a      	mov	r2, r3
 338:	f240 0300 	movw	r3, #0	; 0x0
 33c:	f2c0 0300 	movt	r3, #0	; 0x0
 340:	f853 1022 	ldr.w	r1, [r3, r2, lsl #2]
 344:	f240 0300 	movw	r3, #0	; 0x0
 348:	f2c0 0300 	movt	r3, #0	; 0x0
 34c:	681a      	ldr	r2, [r3, #0]
 34e:	4613      	mov	r3, r2
 350:	ea4f 0383 	mov.w	r3, r3, lsl #2
 354:	4413      	add	r3, r2
 356:	ea4f 0383 	mov.w	r3, r3, lsl #2
 35a:	440b      	add	r3, r1
 35c:	68db      	ldr	r3, [r3, #12]
 35e:	2b00      	cmp	r3, #0
 360:	d01b      	beq.n	39a <menu_touch+0x39a>
 362:	f240 0300 	movw	r3, #0	; 0x0
 366:	f2c0 0300 	movt	r3, #0	; 0x0
 36a:	781b      	ldrb	r3, [r3, #0]
 36c:	461a      	mov	r2, r3
 36e:	f240 0300 	movw	r3, #0	; 0x0
 372:	f2c0 0300 	movt	r3, #0	; 0x0
 376:	f853 1022 	ldr.w	r1, [r3, r2, lsl #2]
 37a:	f240 0300 	movw	r3, #0	; 0x0
 37e:	f2c0 0300 	movt	r3, #0	; 0x0
 382:	681a      	ldr	r2, [r3, #0]
 384:	4613      	mov	r3, r2
 386:	ea4f 0383 	mov.w	r3, r3, lsl #2
 38a:	4413      	add	r3, r2
 38c:	ea4f 0383 	mov.w	r3, r3, lsl #2
 390:	440b      	add	r3, r1
 392:	68db      	ldr	r3, [r3, #12]
 394:	f04f 0001 	mov.w	r0, #1	; 0x1
 398:	4798      	blx	r3
 39a:	f107 0710 	add.w	r7, r7, #16	; 0x10
 39e:	46bd      	mov	sp, r7
 3a0:	bd80      	pop	{r7, pc}
 3a2:	bf00      	nop

Disassembly of section .text.menu_clear:

00000000 <menu_clear>:
   0:	b580      	push	{r7, lr}
   2:	af00      	add	r7, sp, #0
   4:	f04f 0000 	mov.w	r0, #0	; 0x0
   8:	f7ff fffe 	bl	0 <lcd_clear>
   c:	46bd      	mov	sp, r7
   e:	bd80      	pop	{r7, pc}
